target datalayout = "e-m:e-p270:32:32-p271:32:32-p272:64:64-i64:64-i128:128-f80:128-n8:16:32:64-S128"
target triple = "x86_64-pc-linux-gnu"

; Function Attrs: inlinehint nounwind sspstrong willreturn memory(none) uwtable
define internal zeroext i1 @RB_TEST(i64 noundef %0) #7 {
  %2 = alloca i64, align 8
  store i64 %0, ptr %2, align 8, !tbaa !6
  %3 = load i64, ptr %2, align 8, !tbaa !6
  %4 = and i64 %3, -5
  %5 = icmp ne i64 %4, 0
  ret i1 %5
}

; Function Attrs: nounwind sspstrong uwtable
define internal i64 @strscan_search_full(i64 noundef %0, i64 noundef %1, i64 noundef %2, i64 noundef %3) #0 {
  %5 = alloca i64, align 8
  %6 = alloca i64, align 8
  %7 = alloca i64, align 8
  %8 = alloca i64, align 8
  store i64 %0, ptr %5, align 8, !tbaa !6
  store i64 %1, ptr %6, align 8, !tbaa !6
  store i64 %2, ptr %7, align 8, !tbaa !6
  store i64 %3, ptr %8, align 8, !tbaa !6
  %9 = load i64, ptr %5, align 8, !tbaa !6
  %10 = load i64, ptr %6, align 8, !tbaa !6
  %11 = load i64, ptr %7, align 8, !tbaa !6
  %12 = call zeroext i1 @RB_TEST(i64 noundef %11) #24
  %13 = zext i1 %12 to i32
  %14 = load i64, ptr %8, align 8, !tbaa !6
  %15 = call zeroext i1 @RB_TEST(i64 noundef %14) #24
  %16 = zext i1 %15 to i32
  %17 = call i64 @strscan_do_scan(i64 noundef %9, i64 noundef %10, i32 noundef %13, i32 noundef %16, i32 noundef 0)
  ret i64 %17
}